target datalayout = "e-m:e-p270:32:32-p271:32:32-p272:64:64-i64:64-i128:128-f80:128-n8:16:32:64-S128"
target triple = "x86_64-pc-linux-gnu"

; Function Attrs: mustprogress nounwind uwtable
define internal void @_ZN2cvL12mixChannels_IhEEvPPKT_PKiPPS1_S6_ii(ptr noundef %0, ptr noundef %1, ptr noundef %2, ptr noundef %3, i32 noundef %4, i32 noundef %5) #4 {
  %7 = alloca ptr, align 8
  %8 = alloca ptr, align 8
  %9 = alloca ptr, align 8
  %10 = alloca ptr, align 8
  %11 = alloca i32, align 4
  %12 = alloca i32, align 4
  %13 = alloca i32, align 4
  %14 = alloca i32, align 4
  %15 = alloca ptr, align 8
  %16 = alloca ptr, align 8
  %17 = alloca i32, align 4
  %18 = alloca i32, align 4
  %19 = alloca i8, align 1
  %20 = alloca i8, align 1
  store ptr %0, ptr %7, align 8, !tbaa !17
  store ptr %1, ptr %8, align 8, !tbaa !10
  store ptr %2, ptr %9, align 8, !tbaa !17
  store ptr %3, ptr %10, align 8, !tbaa !10
  store i32 %4, ptr %11, align 4, !tbaa !12
  store i32 %5, ptr %12, align 4, !tbaa !12
  call void @llvm.lifetime.start.p0(i64 4, ptr %13) #14
  call void @llvm.lifetime.start.p0(i64 4, ptr %14) #14
  store i32 0, ptr %14, align 4, !tbaa !12
  br label %21

21:                                               ; preds = %125, %6
  %22 = load i32, ptr %14, align 4, !tbaa !12
  %23 = load i32, ptr %12, align 4, !tbaa !12
  %24 = icmp slt i32 %22, %23
  br i1 %24, label %25, label %128

25:                                               ; preds = %21
  call void @llvm.lifetime.start.p0(i64 8, ptr %15) #14
  %26 = load ptr, ptr %7, align 8, !tbaa !17
  %27 = load i32, ptr %14, align 4, !tbaa !12
  %28 = sext i32 %27 to i64
  %29 = getelementptr inbounds ptr, ptr %26, i64 %28
  %30 = load ptr, ptr %29, align 8, !tbaa !22
  store ptr %30, ptr %15, align 8, !tbaa !22
  call void @llvm.lifetime.start.p0(i64 8, ptr %16) #14
  %31 = load ptr, ptr %9, align 8, !tbaa !17
  %32 = load i32, ptr %14, align 4, !tbaa !12
  %33 = sext i32 %32 to i64
  %34 = getelementptr inbounds ptr, ptr %31, i64 %33
  %35 = load ptr, ptr %34, align 8, !tbaa !22
  store ptr %35, ptr %16, align 8, !tbaa !22
  call void @llvm.lifetime.start.p0(i64 4, ptr %17) #14
  %36 = load ptr, ptr %8, align 8, !tbaa !10
  %37 = load i32, ptr %14, align 4, !tbaa !12
  %38 = sext i32 %37 to i64
  %39 = getelementptr inbounds i32, ptr %36, i64 %38
  %40 = load i32, ptr %39, align 4, !tbaa !12
  store i32 %40, ptr %17, align 4, !tbaa !12
  call void @llvm.lifetime.start.p0(i64 4, ptr %18) #14
  %41 = load ptr, ptr %10, align 8, !tbaa !10
  %42 = load i32, ptr %14, align 4, !tbaa !12
  %43 = sext i32 %42 to i64
  %44 = getelementptr inbounds i32, ptr %41, i64 %43
  %45 = load i32, ptr %44, align 4, !tbaa !12
  store i32 %45, ptr %18, align 4, !tbaa !12
  %46 = load ptr, ptr %15, align 8, !tbaa !22
  %47 = icmp ne ptr %46, null
  br i1 %47, label %48, label %95

48:                                               ; preds = %25
  store i32 0, ptr %13, align 4, !tbaa !12
  br label %49

49:                                               ; preds = %71, %48
  %50 = load i32, ptr %13, align 4, !tbaa !12
  %51 = load i32, ptr %11, align 4, !tbaa !12
  %52 = sub nsw i32 %51, 2
  %53 = icmp sle i32 %50, %52
  br i1 %53, label %54, label %84

54:                                               ; preds = %49
  call void @llvm.lifetime.start.p0(i64 1, ptr %19) #14
  %55 = load ptr, ptr %15, align 8, !tbaa !22
  %56 = getelementptr inbounds i8, ptr %55, i64 0
  %57 = load i8, ptr %56, align 1, !tbaa !88
  store i8 %57, ptr %19, align 1, !tbaa !88
  call void @llvm.lifetime.start.p0(i64 1, ptr %20) #14
  %58 = load ptr, ptr %15, align 8, !tbaa !22
  %59 = load i32, ptr %17, align 4, !tbaa !12
  %60 = sext i32 %59 to i64
  %61 = getelementptr inbounds i8, ptr %58, i64 %60
  %62 = load i8, ptr %61, align 1, !tbaa !88
  store i8 %62, ptr %20, align 1, !tbaa !88
  %63 = load i8, ptr %19, align 1, !tbaa !88
  %64 = load ptr, ptr %16, align 8, !tbaa !22
  %65 = getelementptr inbounds i8, ptr %64, i64 0
  store i8 %63, ptr %65, align 1, !tbaa !88
  %66 = load i8, ptr %20, align 1, !tbaa !88
  %67 = load ptr, ptr %16, align 8, !tbaa !22
  %68 = load i32, ptr %18, align 4, !tbaa !12
  %69 = sext i32 %68 to i64
  %70 = getelementptr inbounds i8, ptr %67, i64 %69
  store i8 %66, ptr %70, align 1, !tbaa !88
  call void @llvm.lifetime.end.p0(i64 1, ptr %20) #14
  call void @llvm.lifetime.end.p0(i64 1, ptr %19) #14
  br label %71

71:                                               ; preds = %54
  %72 = load i32, ptr %13, align 4, !tbaa !12
  %73 = add nsw i32 %72, 2
  store i32 %73, ptr %13, align 4, !tbaa !12
  %74 = load i32, ptr %17, align 4, !tbaa !12
  %75 = mul nsw i32 %74, 2
  %76 = load ptr, ptr %15, align 8, !tbaa !22
  %77 = sext i32 %75 to i64
  %78 = getelementptr inbounds i8, ptr %76, i64 %77
  store ptr %78, ptr %15, align 8, !tbaa !22
  %79 = load i32, ptr %18, align 4, !tbaa !12
  %80 = mul nsw i32 %79, 2
  %81 = load ptr, ptr %16, align 8, !tbaa !22
  %82 = sext i32 %80 to i64
  %83 = getelementptr inbounds i8, ptr %81, i64 %82
  store ptr %83, ptr %16, align 8, !tbaa !22
  br label %49, !llvm.loop !89

84:                                               ; preds = %49
  %85 = load i32, ptr %13, align 4, !tbaa !12
  %86 = load i32, ptr %11, align 4, !tbaa !12
  %87 = icmp slt i32 %85, %86
  br i1 %87, label %88, label %94

88:                                               ; preds = %84
  %89 = load ptr, ptr %15, align 8, !tbaa !22
  %90 = getelementptr inbounds i8, ptr %89, i64 0
  %91 = load i8, ptr %90, align 1, !tbaa !88
  %92 = load ptr, ptr %16, align 8, !tbaa !22
  %93 = getelementptr inbounds i8, ptr %92, i64 0
  store i8 %91, ptr %93, align 1, !tbaa !88
  br label %94

94:                                               ; preds = %88, %84
  br label %124

95:                                               ; preds = %25
  store i32 0, ptr %13, align 4, !tbaa !12
  br label %96

96:                                               ; preds = %108, %95
  %97 = load i32, ptr %13, align 4, !tbaa !12
  %98 = load i32, ptr %11, align 4, !tbaa !12
  %99 = sub nsw i32 %98, 2
  %100 = icmp sle i32 %97, %99
  br i1 %100, label %101, label %116

101:                                              ; preds = %96
  %102 = load ptr, ptr %16, align 8, !tbaa !22
  %103 = load i32, ptr %18, align 4, !tbaa !12
  %104 = sext i32 %103 to i64
  %105 = getelementptr inbounds i8, ptr %102, i64 %104
  store i8 0, ptr %105, align 1, !tbaa !88
  %106 = load ptr, ptr %16, align 8, !tbaa !22
  %107 = getelementptr inbounds i8, ptr %106, i64 0
  store i8 0, ptr %107, align 1, !tbaa !88
  br label %108

108:                                              ; preds = %101
  %109 = load i32, ptr %13, align 4, !tbaa !12
  %110 = add nsw i32 %109, 2
  store i32 %110, ptr %13, align 4, !tbaa !12
  %111 = load i32, ptr %18, align 4, !tbaa !12
  %112 = mul nsw i32 %111, 2
  %113 = load ptr, ptr %16, align 8, !tbaa !22
  %114 = sext i32 %112 to i64
  %115 = getelementptr inbounds i8, ptr %113, i64 %114
  store ptr %115, ptr %16, align 8, !tbaa !22
  br label %96, !llvm.loop !90

116:                                              ; preds = %96
  %117 = load i32, ptr %13, align 4, !tbaa !12
  %118 = load i32, ptr %11, align 4, !tbaa !12
  %119 = icmp slt i32 %117, %118
  br i1 %119, label %120, label %123

120:                                              ; preds = %116
  %121 = load ptr, ptr %16, align 8, !tbaa !22
  %122 = getelementptr inbounds i8, ptr %121, i64 0
  store i8 0, ptr %122, align 1, !tbaa !88
  br label %123

123:                                              ; preds = %120, %116
  br label %124

124:                                              ; preds = %123, %94
  call void @llvm.lifetime.end.p0(i64 4, ptr %18) #14
  call void @llvm.lifetime.end.p0(i64 4, ptr %17) #14
  call void @llvm.lifetime.end.p0(i64 8, ptr %16) #14
  call void @llvm.lifetime.end.p0(i64 8, ptr %15) #14
  br label %125

125:                                              ; preds = %124
  %126 = load i32, ptr %14, align 4, !tbaa !12
  %127 = add nsw i32 %126, 1
  store i32 %127, ptr %14, align 4, !tbaa !12
  br label %21, !llvm.loop !91

128:                                              ; preds = %21
  call void @llvm.lifetime.end.p0(i64 4, ptr %14) #14
  call void @llvm.lifetime.end.p0(i64 4, ptr %13) #14
  ret void
}

; Function Attrs: mustprogress uwtable
define internal void @_ZN2cvL13mixChannels8uEPPKvPKiPPvS4_ii(ptr noundef %0, ptr noundef %1, ptr noundef %2, ptr noundef %3, i32 noundef %4, i32 noundef %5) #0 {
  %7 = alloca ptr, align 8
  %8 = alloca ptr, align 8
  %9 = alloca ptr, align 8
  %10 = alloca ptr, align 8
  %11 = alloca i32, align 4
  %12 = alloca i32, align 4
  store ptr %0, ptr %7, align 8, !tbaa !87
  store ptr %1, ptr %8, align 8, !tbaa !10
  store ptr %2, ptr %9, align 8, !tbaa !87
  store ptr %3, ptr %10, align 8, !tbaa !10
  store i32 %4, ptr %11, align 4, !tbaa !12
  store i32 %5, ptr %12, align 4, !tbaa !12
  %13 = load ptr, ptr %7, align 8, !tbaa !87
  %14 = load ptr, ptr %8, align 8, !tbaa !10
  %15 = load ptr, ptr %9, align 8, !tbaa !87
  %16 = load ptr, ptr %10, align 8, !tbaa !10
  %17 = load i32, ptr %11, align 4, !tbaa !12
  %18 = load i32, ptr %12, align 4, !tbaa !12
  call void @_ZN2cvL12mixChannels_IhEEvPPKT_PKiPPS1_S6_ii(ptr noundef %13, ptr noundef %14, ptr noundef %15, ptr noundef %16, i32 noundef %17, i32 noundef %18)
  ret void
}